; Function Attrs: nounwind uwtable
define hidden signext i16 @aom_rb_read_signed_primitive_refsubexpfin(ptr noundef captures(none) %0, i16 noundef zeroext %1, i16 noundef zeroext %2, i16 noundef signext %3) local_unnamed_addr #1 {
  %5 = add i16 %1, -1
  %6 = add i16 %5, %3
  %7 = shl i16 %1, 1
  %8 = add i16 %7, -1
  %9 = zext i16 %2 to i32
  %10 = zext i16 %8 to i32
  %11 = shl i32 3, %9
  %.not2242.i.i = icmp slt i32 %11, %10
  br i1 %.not2242.i.i, label %.lr.ph.i.i, label %._crit_edge.i.i

.lr.ph.i.i:                                       ; preds = %4
  %12 = getelementptr inbounds nuw i8, ptr %0, i64 16
  %13 = load ptr, ptr %0, align 8
  %14 = getelementptr inbounds nuw i8, ptr %0, i64 8
  %15 = load ptr, ptr %14, align 8
  %.promoted.i.i = load i32, ptr %12, align 8
  br label %79

._crit_edge.loopexit.i.i:                         ; preds = %128
  %16 = trunc i32 %130 to i16
  br label %._crit_edge.i.i

._crit_edge.i.i:                                  ; preds = %._crit_edge.loopexit.i.i, %4
  %.020.lcssa.i.i = phi i16 [ 0, %4 ], [ %16, %._crit_edge.loopexit.i.i ]
  %17 = sub i16 %8, %.020.lcssa.i.i
  %18 = icmp ult i16 %17, 2
  br i1 %18, label %aom_rb_read_primitive_quniform.exit.i.i, label %.lr.ph.i.i.i.i

.lr.ph.i.i.i.i:                                   ; preds = %._crit_edge.i.i
  %19 = zext i16 %17 to i32
  %20 = tail call range(i32 16, 33) i32 @llvm.ctlz.i32(i32 range(i32 2, 65536) %19, i1 true)
  %21 = xor i32 %20, 31
  %22 = getelementptr inbounds nuw i8, ptr %0, i64 16
  %23 = getelementptr inbounds nuw i8, ptr %0, i64 8
  %24 = getelementptr inbounds nuw i8, ptr %0, i64 32
  %25 = getelementptr inbounds nuw i8, ptr %0, i64 24
  br label %26

26:                                               ; preds = %aom_rb_read_bit.exit.i.i.i.i, %.lr.ph.i.i.i.i
  %.0.in8.i.i.i.i = phi i32 [ %21, %.lr.ph.i.i.i.i ], [ %.0.i.i.i.i, %aom_rb_read_bit.exit.i.i.i.i ]
  %.067.i.i.i.i = phi i32 [ 0, %.lr.ph.i.i.i.i ], [ %47, %aom_rb_read_bit.exit.i.i.i.i ]
  %.0.i.i.i.i = add nsw i32 %.0.in8.i.i.i.i, -1
  %27 = load i32, ptr %22, align 8
  %28 = lshr i32 %27, 3
  %29 = load ptr, ptr %0, align 8
  %30 = zext nneg i32 %28 to i64
  %31 = getelementptr inbounds nuw i8, ptr %29, i64 %30
  %32 = load ptr, ptr %23, align 8
  %33 = icmp ult ptr %31, %32
  br i1 %33, label %34, label %42

34:                                               ; preds = %26
  %35 = and i32 %27, 7
  %36 = xor i32 %35, 7
  %37 = load i8, ptr %31, align 1
  %38 = zext i8 %37 to i32
  %39 = lshr i32 %38, %36
  %40 = and i32 %39, 1
  %41 = add i32 %27, 1
  store i32 %41, ptr %22, align 8
  br label %aom_rb_read_bit.exit.i.i.i.i

42:                                               ; preds = %26
  %43 = load ptr, ptr %24, align 8
  %.not.i.i.i.i.i = icmp eq ptr %43, null
  br i1 %.not.i.i.i.i.i, label %aom_rb_read_bit.exit.i.i.i.i, label %44

44:                                               ; preds = %42
  %45 = load ptr, ptr %25, align 8
  tail call void %43(ptr noundef %45) #3
  br label %aom_rb_read_bit.exit.i.i.i.i

aom_rb_read_bit.exit.i.i.i.i:                     ; preds = %44, %42, %34
  %.0.i.i.i.i.i = phi i32 [ %40, %34 ], [ 0, %44 ], [ 0, %42 ]
  %46 = shl nuw i32 %.0.i.i.i.i.i, %.0.i.i.i.i
  %47 = or i32 %46, %.067.i.i.i.i
  %48 = icmp samesign ugt i32 %.0.in8.i.i.i.i, 1
  br i1 %48, label %26, label %aom_rb_read_literal.exit.i.i.i, !llvm.loop !4

aom_rb_read_literal.exit.i.i.i:                   ; preds = %aom_rb_read_bit.exit.i.i.i.i
  %49 = shl nuw nsw i32 2, %21
  %50 = sub nsw i32 %49, %19
  %51 = icmp slt i32 %47, %50
  br i1 %51, label %75, label %52

52:                                               ; preds = %aom_rb_read_literal.exit.i.i.i
  %53 = shl i32 %47, 1
  %54 = sub i32 %53, %50
  %55 = load i32, ptr %22, align 8
  %56 = lshr i32 %55, 3
  %57 = load ptr, ptr %0, align 8
  %58 = zext nneg i32 %56 to i64
  %59 = getelementptr inbounds nuw i8, ptr %57, i64 %58
  %60 = load ptr, ptr %23, align 8
  %61 = icmp ult ptr %59, %60
  br i1 %61, label %62, label %70

62:                                               ; preds = %52
  %63 = and i32 %55, 7
  %64 = xor i32 %63, 7
  %65 = load i8, ptr %59, align 1
  %66 = zext i8 %65 to i32
  %67 = lshr i32 %66, %64
  %68 = and i32 %67, 1
  %69 = add i32 %55, 1
  store i32 %69, ptr %22, align 8
  br label %aom_rb_read_bit.exit.i.i.i

70:                                               ; preds = %52
  %71 = load ptr, ptr %24, align 8
  %.not.i.i.i.i = icmp eq ptr %71, null
  br i1 %.not.i.i.i.i, label %aom_rb_read_bit.exit.i.i.i, label %72

72:                                               ; preds = %70
  %73 = load ptr, ptr %25, align 8
  tail call void %71(ptr noundef %73) #3
  br label %aom_rb_read_bit.exit.i.i.i

aom_rb_read_bit.exit.i.i.i:                       ; preds = %72, %70, %62
  %.0.i15.i.i.i = phi i32 [ %68, %62 ], [ 0, %72 ], [ 0, %70 ]
  %74 = add nsw i32 %54, %.0.i15.i.i.i
  br label %75

75:                                               ; preds = %aom_rb_read_bit.exit.i.i.i, %aom_rb_read_literal.exit.i.i.i
  %76 = phi i32 [ %74, %aom_rb_read_bit.exit.i.i.i ], [ %47, %aom_rb_read_literal.exit.i.i.i ]
  %77 = trunc i32 %76 to i16
  br label %aom_rb_read_primitive_quniform.exit.i.i

aom_rb_read_primitive_quniform.exit.i.i:          ; preds = %75, %._crit_edge.i.i
  %.0.i.i.i = phi i16 [ %77, %75 ], [ 0, %._crit_edge.i.i ]
  %78 = add i16 %.0.i.i.i, %.020.lcssa.i.i
  br label %aom_rb_read_primitive_subexpfin.exit.i

79:                                               ; preds = %128, %.lr.ph.i.i
  %80 = phi i32 [ %.promoted.i.i, %.lr.ph.i.i ], [ %97, %128 ]
  %81 = phi i32 [ %9, %.lr.ph.i.i ], [ %131, %128 ]
  %.01944.i.i = phi i32 [ 0, %.lr.ph.i.i ], [ %129, %128 ]
  %.02043.i.i = phi i32 [ 0, %.lr.ph.i.i ], [ %130, %128 ]
  %82 = shl nuw i32 1, %81
  %83 = lshr i32 %80, 3
  %84 = zext nneg i32 %83 to i64
  %85 = getelementptr inbounds nuw i8, ptr %13, i64 %84
  %86 = icmp ult ptr %85, %15
  br i1 %86, label %aom_rb_read_bit.exit.i.i, label %87

87:                                               ; preds = %79
  %88 = getelementptr inbounds nuw i8, ptr %0, i64 32
  %89 = load ptr, ptr %88, align 8
  %.not.i.i.i = icmp eq ptr %89, null
  br i1 %.not.i.i.i, label %aom_rb_read_bit.exit.thread.i.i, label %90

90:                                               ; preds = %87
  %91 = getelementptr inbounds nuw i8, ptr %0, i64 24
  %92 = load ptr, ptr %91, align 8
  tail call void %89(ptr noundef %92) #3
  br label %aom_rb_read_bit.exit.thread.i.i

aom_rb_read_bit.exit.i.i:                         ; preds = %79
  %93 = and i32 %80, 7
  %94 = xor i32 %93, 7
  %95 = load i8, ptr %85, align 1
  %96 = zext i8 %95 to i32
  %97 = add i32 %80, 1
  store i32 %97, ptr %12, align 8
  %98 = shl nuw nsw i32 1, %94
  %99 = and i32 %98, %96
  %.not23.i.i = icmp eq i32 %99, 0
  br i1 %.not23.i.i, label %aom_rb_read_bit.exit.thread.i.i, label %128

aom_rb_read_bit.exit.thread.i.i:                  ; preds = %aom_rb_read_bit.exit.i.i, %90, %87
  %100 = icmp sgt i32 %81, 0
  br i1 %100, label %.lr.ph.i.i.i, label %aom_rb_read_literal.exit.i.i

.lr.ph.i.i.i:                                     ; preds = %aom_rb_read_bit.exit.thread.i.i
  %101 = getelementptr inbounds nuw i8, ptr %0, i64 32
  %102 = getelementptr inbounds nuw i8, ptr %0, i64 24
  br label %103

103:                                              ; preds = %aom_rb_read_bit.exit.i27.i.i, %.lr.ph.i.i.i
  %.0.in8.i.i.i = phi i32 [ %81, %.lr.ph.i.i.i ], [ %.0.i25.i.i, %aom_rb_read_bit.exit.i27.i.i ]
  %.067.i.i.i = phi i32 [ 0, %.lr.ph.i.i.i ], [ %124, %aom_rb_read_bit.exit.i27.i.i ]
  %.0.i25.i.i = add nsw i32 %.0.in8.i.i.i, -1
  %104 = load i32, ptr %12, align 8
  %105 = lshr i32 %104, 3
  %106 = load ptr, ptr %0, align 8
  %107 = zext nneg i32 %105 to i64
  %108 = getelementptr inbounds nuw i8, ptr %106, i64 %107
  %109 = load ptr, ptr %14, align 8
  %110 = icmp ult ptr %108, %109
  br i1 %110, label %111, label %119

111:                                              ; preds = %103
  %112 = and i32 %104, 7
  %113 = xor i32 %112, 7
  %114 = load i8, ptr %108, align 1
  %115 = zext i8 %114 to i32
  %116 = lshr i32 %115, %113
  %117 = and i32 %116, 1
  %118 = add i32 %104, 1
  store i32 %118, ptr %12, align 8
  br label %aom_rb_read_bit.exit.i27.i.i

119:                                              ; preds = %103
  %120 = load ptr, ptr %101, align 8
  %.not.i.i26.i.i = icmp eq ptr %120, null
  br i1 %.not.i.i26.i.i, label %aom_rb_read_bit.exit.i27.i.i, label %121

121:                                              ; preds = %119
  %122 = load ptr, ptr %102, align 8
  tail call void %120(ptr noundef %122) #3
  br label %aom_rb_read_bit.exit.i27.i.i

aom_rb_read_bit.exit.i27.i.i:                     ; preds = %121, %119, %111
  %.0.i.i28.i.i = phi i32 [ %117, %111 ], [ 0, %121 ], [ 0, %119 ]
  %123 = shl nuw i32 %.0.i.i28.i.i, %.0.i25.i.i
  %124 = or i32 %123, %.067.i.i.i
  %125 = icmp samesign ugt i32 %.0.in8.i.i.i, 1
  br i1 %125, label %103, label %aom_rb_read_literal.exit.i.i, !llvm.loop !4

aom_rb_read_literal.exit.i.i:                     ; preds = %aom_rb_read_bit.exit.i27.i.i, %aom_rb_read_bit.exit.thread.i.i
  %.06.lcssa.i.i.i = phi i32 [ 0, %aom_rb_read_bit.exit.thread.i.i ], [ %124, %aom_rb_read_bit.exit.i27.i.i ]
  %126 = add nsw i32 %.06.lcssa.i.i.i, %.02043.i.i
  %127 = trunc i32 %126 to i16
  br label %aom_rb_read_primitive_subexpfin.exit.i

128:                                              ; preds = %aom_rb_read_bit.exit.i.i
  %129 = add nuw nsw i32 %.01944.i.i, 1
  %130 = add nsw i32 %.02043.i.i, %82
  %131 = add nuw i32 %.01944.i.i, %9
  %132 = shl i32 3, %131
  %133 = add nsw i32 %132, %130
  %.not22.i.i = icmp slt i32 %133, %10
  br i1 %.not22.i.i, label %79, label %._crit_edge.loopexit.i.i

aom_rb_read_primitive_subexpfin.exit.i:           ; preds = %aom_rb_read_literal.exit.i.i, %aom_rb_read_primitive_quniform.exit.i.i
  %.0.i.i = phi i16 [ %78, %aom_rb_read_primitive_quniform.exit.i.i ], [ %127, %aom_rb_read_literal.exit.i.i ]
  %134 = zext i16 %6 to i32
  %135 = shl nuw nsw i32 %134, 1
  %.not.i.i = icmp samesign ugt i32 %135, %10
  br i1 %.not.i.i, label %150, label %136

136:                                              ; preds = %aom_rb_read_primitive_subexpfin.exit.i
  %137 = zext i16 %.0.i.i to i32
  %138 = icmp samesign ult i32 %135, %137
  br i1 %138, label %aom_rb_read_primitive_refsubexpfin.exit, label %139

139:                                              ; preds = %136
  %140 = and i32 %137, 1
  %141 = icmp eq i32 %140, 0
  br i1 %141, label %142, label %145

142:                                              ; preds = %139
  %143 = lshr i16 %.0.i.i, 1
  %144 = add i16 %143, %6
  br label %aom_rb_read_primitive_refsubexpfin.exit

145:                                              ; preds = %139
  %146 = add nuw nsw i32 %137, 1
  %147 = lshr exact i32 %146, 1
  %148 = trunc nuw i32 %147 to i16
  %149 = sub i16 %6, %148
  br label %aom_rb_read_primitive_refsubexpfin.exit

150:                                              ; preds = %aom_rb_read_primitive_subexpfin.exit.i
  %151 = add i16 %7, -2
  %152 = sub i16 %151, %6
  %153 = zext i16 %.0.i.i to i32
  %154 = zext i16 %152 to i32
  %155 = shl nuw nsw i32 %154, 1
  %156 = icmp samesign ult i32 %155, %153
  br i1 %156, label %inv_recenter_nonneg.exit11.i.i, label %157

157:                                              ; preds = %150
  %158 = and i32 %153, 1
  %159 = icmp eq i32 %158, 0
  br i1 %159, label %160, label %163

160:                                              ; preds = %157
  %161 = lshr i16 %.0.i.i, 1
  %162 = add i16 %161, %152
  br label %inv_recenter_nonneg.exit11.i.i

163:                                              ; preds = %157
  %164 = add nuw nsw i32 %153, 1
  %165 = lshr exact i32 %164, 1
  %166 = trunc nuw i32 %165 to i16
  %167 = sub i16 %152, %166
  br label %inv_recenter_nonneg.exit11.i.i

inv_recenter_nonneg.exit11.i.i:                   ; preds = %163, %160, %150
  %.0.i10.i.i = phi i16 [ %162, %160 ], [ %167, %163 ], [ %.0.i.i, %150 ]
  %168 = sub i16 %151, %.0.i10.i.i
  br label %aom_rb_read_primitive_refsubexpfin.exit

aom_rb_read_primitive_refsubexpfin.exit:          ; preds = %136, %142, %145, %inv_recenter_nonneg.exit11.i.i
  %.0.i4.i = phi i16 [ %168, %inv_recenter_nonneg.exit11.i.i ], [ %144, %142 ], [ %149, %145 ], [ %.0.i.i, %136 ]
  %reass.sub = sub i16 %.0.i4.i, %1
  %169 = add i16 %reass.sub, 1
  ret i16 %169
}